; Function Attrs: nounwind uwtable
define dso_local noundef i32 @ls_refs_advertise(ptr noundef %0, ptr noundef %1) local_unnamed_addr #0 {
  %.not = icmp eq ptr %1, null
  br i1 %.not, label %7, label %3

3:                                                ; preds = %2
  %4 = tail call fastcc i32 @unborn_config(ptr noundef %0)
  %5 = icmp eq i32 %4, 2
  br i1 %5, label %6, label %7

6:                                                ; preds = %3
  tail call void @strbuf_add(ptr noundef nonnull %1, ptr noundef nonnull @.str.3, i64 noundef 6) #10
  br label %7

7:                                                ; preds = %6, %3, %2
  ret i32 1
}